target datalayout = "e-m:e-p270:32:32-p271:32:32-p272:64:64-i64:64-i128:128-f80:128-n8:16:32:64-S128"
target triple = "x86_64-pc-linux-gnu"

@.str = private unnamed_addr constant [97 x i8] c"generated/home/dtcxzyw/WorkSpace/Projects/compilers/llvm-opt-benchmark/bench/hdf5/hdf5/src/H5A.c\00", align 1
@H5E_ATTR_g = external global i64, align 8
@H5E_WRITEERROR_g = external global i64, align 8
@H5E_ARGS_g = external global i64, align 8
@H5E_BADTYPE_g = external global i64, align 8
@H5P_LST_DATASET_XFER_ID_g = external global i64, align 8
@H5E_CANTGET_g = external global i64, align 8
@H5E_BADVALUE_g = external global i64, align 8
@.str.75 = private unnamed_addr constant [35 x i8] c"can't get VOL object for attribute\00", align 1
@__func__.H5A__write_api_common = private unnamed_addr constant [22 x i8] c"H5A__write_api_common\00", align 1
@.str.95 = private unnamed_addr constant [15 x i8] c"not a datatype\00", align 1
@.str.96 = private unnamed_addr constant [28 x i8] c"buf parameter can't be NULL\00", align 1
@.str.97 = private unnamed_addr constant [26 x i8] c"unable to write attribute\00", align 1

; Function Attrs: nounwind uwtable
define internal i32 @H5A__write_api_common(i64 noundef %0, i64 noundef %1, ptr noundef %2, ptr noundef %3, ptr noundef %4) #0 {
  %6 = alloca i64, align 8
  %7 = alloca i64, align 8
  %8 = alloca ptr, align 8
  %9 = alloca ptr, align 8
  %10 = alloca ptr, align 8
  %11 = alloca ptr, align 8
  %12 = alloca ptr, align 8
  %13 = alloca i32, align 4
  %14 = alloca i8, align 1
  store i64 %0, ptr %6, align 8
  store i64 %1, ptr %7, align 8
  store ptr %2, ptr %8, align 8
  store ptr %3, ptr %9, align 8
  store ptr %4, ptr %10, align 8
  store ptr null, ptr %11, align 8
  %15 = load ptr, ptr %10, align 8
  %16 = icmp ne ptr %15, null
  br i1 %16, label %17, label %19

17:                                               ; preds = %5
  %18 = load ptr, ptr %10, align 8
  br label %20

19:                                               ; preds = %5
  br label %20

20:                                               ; preds = %19, %17
  %21 = phi ptr [ %18, %17 ], [ %11, %19 ]
  store ptr %21, ptr %12, align 8
  store i32 0, ptr %13, align 4
  store i8 0, ptr %14, align 1
  %22 = load i64, ptr %7, align 8
  %23 = call i32 @H5I_get_type(i64 noundef %22)
  %24 = icmp ne i32 3, %23
  br i1 %24, label %25, label %40

25:                                               ; preds = %20
  br label %26

26:                                               ; preds = %25
  br label %27

27:                                               ; preds = %26
  br label %28

28:                                               ; preds = %27
  %29 = load i64, ptr @H5E_ARGS_g, align 8
  %30 = load i64, ptr @H5E_BADTYPE_g, align 8
  %31 = call i32 (ptr, ptr, i32, i64, i64, ptr, ...) @H5E_printf_stack(ptr noundef @.str, ptr noundef @__func__.H5A__write_api_common, i32 noundef 875, i64 noundef %29, i64 noundef %30, ptr noundef @.str.95)
  br label %32

32:                                               ; preds = %28
  store i8 1, ptr %14, align 1
  %33 = load i8, ptr %14, align 1
  %34 = trunc i8 %33 to i1
  %35 = zext i1 %34 to i8
  store i8 %35, ptr %14, align 1
  br label %36

36:                                               ; preds = %32
  br label %37

37:                                               ; preds = %36
  store i32 -1, ptr %13, align 4
  br label %103

38:                                               ; No predecessors!
  br label %39

39:                                               ; preds = %38
  br label %40

40:                                               ; preds = %39, %20
  %41 = load ptr, ptr %8, align 8
  %42 = icmp eq ptr null, %41
  br i1 %42, label %43, label %58

43:                                               ; preds = %40
  br label %44

44:                                               ; preds = %43
  br label %45

45:                                               ; preds = %44
  br label %46

46:                                               ; preds = %45
  %47 = load i64, ptr @H5E_ARGS_g, align 8
  %48 = load i64, ptr @H5E_BADVALUE_g, align 8
  %49 = call i32 (ptr, ptr, i32, i64, i64, ptr, ...) @H5E_printf_stack(ptr noundef @.str, ptr noundef @__func__.H5A__write_api_common, i32 noundef 877, i64 noundef %47, i64 noundef %48, ptr noundef @.str.96)
  br label %50

50:                                               ; preds = %46
  store i8 1, ptr %14, align 1
  %51 = load i8, ptr %14, align 1
  %52 = trunc i8 %51 to i1
  %53 = zext i1 %52 to i8
  store i8 %53, ptr %14, align 1
  br label %54

54:                                               ; preds = %50
  br label %55

55:                                               ; preds = %54
  store i32 -1, ptr %13, align 4
  br label %103

56:                                               ; No predecessors!
  br label %57

57:                                               ; preds = %56
  br label %58

58:                                               ; preds = %57, %40
  %59 = load i64, ptr %6, align 8
  %60 = load ptr, ptr %12, align 8
  %61 = call i32 @H5VL_setup_args(i64 noundef %59, i32 noundef 7, ptr noundef %60)
  %62 = icmp slt i32 %61, 0
  br i1 %62, label %63, label %78

63:                                               ; preds = %58
  br label %64

64:                                               ; preds = %63
  br label %65

65:                                               ; preds = %64
  br label %66

66:                                               ; preds = %65
  %67 = load i64, ptr @H5E_ATTR_g, align 8
  %68 = load i64, ptr @H5E_CANTGET_g, align 8
  %69 = call i32 (ptr, ptr, i32, i64, i64, ptr, ...) @H5E_printf_stack(ptr noundef @.str, ptr noundef @__func__.H5A__write_api_common, i32 noundef 881, i64 noundef %67, i64 noundef %68, ptr noundef @.str.75)
  br label %70

70:                                               ; preds = %66
  store i8 1, ptr %14, align 1
  %71 = load i8, ptr %14, align 1
  %72 = trunc i8 %71 to i1
  %73 = zext i1 %72 to i8
  store i8 %73, ptr %14, align 1
  br label %74

74:                                               ; preds = %70
  br label %75

75:                                               ; preds = %74
  store i32 -1, ptr %13, align 4
  br label %103

76:                                               ; No predecessors!
  br label %77

77:                                               ; preds = %76
  br label %78

78:                                               ; preds = %77, %58
  %79 = load ptr, ptr %12, align 8
  %80 = load ptr, ptr %79, align 8
  %81 = load i64, ptr %7, align 8
  %82 = load ptr, ptr %8, align 8
  %83 = load i64, ptr @H5P_LST_DATASET_XFER_ID_g, align 8
  %84 = load ptr, ptr %9, align 8
  %85 = call i32 @H5VL_attr_write(ptr noundef %80, i64 noundef %81, ptr noundef %82, i64 noundef %83, ptr noundef %84)
  %86 = icmp slt i32 %85, 0
  br i1 %86, label %87, label %102

87:                                               ; preds = %78
  br label %88

88:                                               ; preds = %87
  br label %89

89:                                               ; preds = %88
  br label %90

90:                                               ; preds = %89
  %91 = load i64, ptr @H5E_ATTR_g, align 8
  %92 = load i64, ptr @H5E_WRITEERROR_g, align 8
  %93 = call i32 (ptr, ptr, i32, i64, i64, ptr, ...) @H5E_printf_stack(ptr noundef @.str, ptr noundef @__func__.H5A__write_api_common, i32 noundef 885, i64 noundef %91, i64 noundef %92, ptr noundef @.str.97)
  br label %94

94:                                               ; preds = %90
  store i8 1, ptr %14, align 1
  %95 = load i8, ptr %14, align 1
  %96 = trunc i8 %95 to i1
  %97 = zext i1 %96 to i8
  store i8 %97, ptr %14, align 1
  br label %98

98:                                               ; preds = %94
  br label %99

99:                                               ; preds = %98
  store i32 -1, ptr %13, align 4
  br label %103

100:                                              ; No predecessors!
  br label %101

101:                                              ; preds = %100
  br label %102

102:                                              ; preds = %101, %78
  br label %103

103:                                              ; preds = %102, %99, %75, %55, %37
  %104 = load i32, ptr %13, align 4
  ret i32 %104
}