; Function Attrs: nounwind uwtable
define internal fastcc range(i32 -1, 1) i32 @H5A__write_api_common(i64 noundef %0, i64 noundef %1, ptr noundef %2, ptr noundef %3, ptr noundef %4) unnamed_addr #0 {
  %6 = alloca ptr, align 8
  store ptr null, ptr %6, align 8
  %.not = icmp eq ptr %4, null
  %7 = select i1 %.not, ptr %6, ptr %4
  %8 = tail call i32 @H5I_get_type(i64 noundef %1) #4
  %.not15 = icmp eq i32 %8, 3
  br i1 %.not15, label %13, label %9

9:                                                ; preds = %5
  %10 = load i64, ptr @H5E_ARGS_g, align 8
  %11 = load i64, ptr @H5E_BADTYPE_g, align 8
  %12 = tail call i32 (ptr, ptr, i32, i64, i64, ptr, ...) @H5E_printf_stack(ptr noundef nonnull @.str, ptr noundef nonnull @__func__.H5A__write_api_common, i32 noundef 875, i64 noundef %10, i64 noundef %11, ptr noundef nonnull @.str.95) #4
  br label %35

13:                                               ; preds = %5
  %14 = icmp eq ptr %2, null
  br i1 %14, label %15, label %19

15:                                               ; preds = %13
  %16 = load i64, ptr @H5E_ARGS_g, align 8
  %17 = load i64, ptr @H5E_BADVALUE_g, align 8
  %18 = tail call i32 (ptr, ptr, i32, i64, i64, ptr, ...) @H5E_printf_stack(ptr noundef nonnull @.str, ptr noundef nonnull @__func__.H5A__write_api_common, i32 noundef 877, i64 noundef %16, i64 noundef %17, ptr noundef nonnull @.str.96) #4
  br label %35

19:                                               ; preds = %13
  %20 = call i32 @H5VL_setup_args(i64 noundef %0, i32 noundef 7, ptr noundef nonnull %7) #4
  %21 = icmp slt i32 %20, 0
  br i1 %21, label %22, label %26

22:                                               ; preds = %19
  %23 = load i64, ptr @H5E_ATTR_g, align 8
  %24 = load i64, ptr @H5E_CANTGET_g, align 8
  %25 = call i32 (ptr, ptr, i32, i64, i64, ptr, ...) @H5E_printf_stack(ptr noundef nonnull @.str, ptr noundef nonnull @__func__.H5A__write_api_common, i32 noundef 881, i64 noundef %23, i64 noundef %24, ptr noundef nonnull @.str.75) #4
  br label %35

26:                                               ; preds = %19
  %27 = load ptr, ptr %7, align 8
  %28 = load i64, ptr @H5P_LST_DATASET_XFER_ID_g, align 8
  %29 = call i32 @H5VL_attr_write(ptr noundef %27, i64 noundef %1, ptr noundef nonnull %2, i64 noundef %28, ptr noundef %3) #4
  %30 = icmp slt i32 %29, 0
  br i1 %30, label %31, label %35

31:                                               ; preds = %26
  %32 = load i64, ptr @H5E_ATTR_g, align 8
  %33 = load i64, ptr @H5E_WRITEERROR_g, align 8
  %34 = call i32 (ptr, ptr, i32, i64, i64, ptr, ...) @H5E_printf_stack(ptr noundef nonnull @.str, ptr noundef nonnull @__func__.H5A__write_api_common, i32 noundef 885, i64 noundef %32, i64 noundef %33, ptr noundef nonnull @.str.97) #4
  br label %35

35:                                               ; preds = %26, %31, %22, %15, %9
  %.0 = phi i32 [ -1, %9 ], [ -1, %15 ], [ -1, %22 ], [ -1, %31 ], [ 0, %26 ]
  ret i32 %.0
}